target datalayout = "e-m:e-p270:32:32-p271:32:32-p272:64:64-i64:64-i128:128-f80:128-n8:16:32:64-S128"
target triple = "x86_64-pc-linux-gnu"

%struct.lua_TValue = type { %union.Value, [1 x i32], i32 }
%union.Value = type { ptr }
%struct.lua_State = type { i8, i8, i8, i8, i8, i8, i8, ptr, ptr, ptr, ptr, ptr, ptr, ptr, ptr, i32, i32, i16, i16, i32, ptr, ptr, ptr, ptr, ptr }
%struct.global_State = type { %struct.stringtable, ptr, ptr, i8, i8, ptr, ptr, ptr, i64, i64, i32, i32, i32, [40 x ptr], [40 x ptr], ptr, ptr, ptr, [256 x i64], ptr, %struct.UpVal, [11 x ptr], [11 x ptr], [21 x ptr], %struct.lua_TValue, %struct.lua_TValue, i32, ptr, i64, [4 x i64], %struct.lua_Callbacks, %struct.lua_ExecutionCallbacks, [128 x ptr], [128 x ptr], [128 x ptr], %struct.GCStats }
%struct.stringtable = type { ptr, i32, i32 }
%struct.UpVal = type { i8, i8, i8, i8, ptr, %union.anon.3 }
%union.anon.3 = type { %struct.anon.4 }
%struct.anon.4 = type { ptr, ptr, ptr }
%struct.lua_Callbacks = type { ptr, ptr, ptr, ptr, ptr, ptr, ptr, ptr, ptr, ptr }
%struct.lua_ExecutionCallbacks = type { ptr, ptr, ptr, ptr, ptr, ptr, ptr }
%struct.GCStats = type { [32 x i32], i32, i32, i64, i64, i64, double, double, double }
%struct.TString = type { i8, i8, i8, i16, ptr, i32, i32, [1 x i8] }

@luaO_nilobject_ = external hidden global %struct.lua_TValue, align 8

; Function Attrs: alwaysinline mustprogress uwtable
define internal noundef ptr @_ZL10index2addrP9lua_Statei(ptr noundef %0, i32 noundef %1) #2 {
  %3 = alloca ptr, align 8
  %4 = alloca ptr, align 8
  %5 = alloca i32, align 4
  %6 = alloca ptr, align 8
  %7 = alloca i32, align 4
  store ptr %0, ptr %4, align 8, !tbaa !4
  store i32 %1, ptr %5, align 4, !tbaa !9
  %8 = load i32, ptr %5, align 4, !tbaa !9
  %9 = icmp sgt i32 %8, 0
  br i1 %9, label %10, label %27

10:                                               ; preds = %2
  call void @llvm.lifetime.start.p0(i64 8, ptr %6) #11
  %11 = load ptr, ptr %4, align 8, !tbaa !4
  %12 = getelementptr inbounds nuw %struct.lua_State, ptr %11, i32 0, i32 8
  %13 = load ptr, ptr %12, align 8, !tbaa !13
  %14 = load i32, ptr %5, align 4, !tbaa !9
  %15 = sub nsw i32 %14, 1
  %16 = sext i32 %15 to i64
  %17 = getelementptr inbounds %struct.lua_TValue, ptr %13, i64 %16
  store ptr %17, ptr %6, align 8, !tbaa !11
  %18 = load ptr, ptr %6, align 8, !tbaa !11
  %19 = load ptr, ptr %4, align 8, !tbaa !4
  %20 = getelementptr inbounds nuw %struct.lua_State, ptr %19, i32 0, i32 7
  %21 = load ptr, ptr %20, align 8, !tbaa !23
  %22 = icmp uge ptr %18, %21
  br i1 %22, label %23, label %24

23:                                               ; preds = %10
  store ptr @luaO_nilobject_, ptr %3, align 8
  store i32 1, ptr %7, align 4
  br label %26

24:                                               ; preds = %10
  %25 = load ptr, ptr %6, align 8, !tbaa !11
  store ptr %25, ptr %3, align 8
  store i32 1, ptr %7, align 4
  br label %26

26:                                               ; preds = %24, %23
  call void @llvm.lifetime.end.p0(i64 8, ptr %6) #11
  br label %41

27:                                               ; preds = %2
  %28 = load i32, ptr %5, align 4, !tbaa !9
  %29 = icmp sgt i32 %28, -10000
  br i1 %29, label %30, label %37

30:                                               ; preds = %27
  %31 = load ptr, ptr %4, align 8, !tbaa !4
  %32 = getelementptr inbounds nuw %struct.lua_State, ptr %31, i32 0, i32 7
  %33 = load ptr, ptr %32, align 8, !tbaa !23
  %34 = load i32, ptr %5, align 4, !tbaa !9
  %35 = sext i32 %34 to i64
  %36 = getelementptr inbounds %struct.lua_TValue, ptr %33, i64 %35
  store ptr %36, ptr %3, align 8
  br label %41

37:                                               ; preds = %27
  %38 = load ptr, ptr %4, align 8, !tbaa !4
  %39 = load i32, ptr %5, align 4, !tbaa !9
  %40 = call noundef ptr @_ZL11pseudo2addrP9lua_Statei(ptr noundef %38, i32 noundef %39)
  store ptr %40, ptr %3, align 8
  br label %41

41:                                               ; preds = %37, %30, %26
  %42 = load ptr, ptr %3, align 8
  ret ptr %42
}

; Function Attrs: mustprogress uwtable
define dso_local noundef ptr @_Z17lua_tolstringatomP9lua_StateiPmPi(ptr noundef %0, i32 noundef %1, ptr noundef %2, ptr noundef %3) #0 {
  %5 = alloca ptr, align 8
  %6 = alloca ptr, align 8
  %7 = alloca i32, align 4
  %8 = alloca ptr, align 8
  %9 = alloca ptr, align 8
  %10 = alloca ptr, align 8
  %11 = alloca i32, align 4
  %12 = alloca ptr, align 8
  store ptr %0, ptr %6, align 8, !tbaa !4
  store i32 %1, ptr %7, align 4, !tbaa !9
  store ptr %2, ptr %8, align 8, !tbaa !67
  store ptr %3, ptr %9, align 8, !tbaa !65
  call void @llvm.lifetime.start.p0(i64 8, ptr %10) #11
  %13 = load ptr, ptr %6, align 8, !tbaa !4
  %14 = load i32, ptr %7, align 4, !tbaa !9
  %15 = call noundef ptr @_ZL10index2addrP9lua_Statei(ptr noundef %13, i32 noundef %14)
  store ptr %15, ptr %10, align 8, !tbaa !11
  %16 = load ptr, ptr %10, align 8, !tbaa !11
  %17 = getelementptr inbounds nuw %struct.lua_TValue, ptr %16, i32 0, i32 2
  %18 = load i32, ptr %17, align 4, !tbaa !49
  %19 = icmp eq i32 %18, 5
  br i1 %19, label %26, label %20

20:                                               ; preds = %4
  %21 = load ptr, ptr %8, align 8, !tbaa !67
  %22 = icmp ne ptr %21, null
  br i1 %22, label %23, label %25

23:                                               ; preds = %20
  %24 = load ptr, ptr %8, align 8, !tbaa !67
  store i64 0, ptr %24, align 8, !tbaa !69
  br label %25

25:                                               ; preds = %23, %20
  store ptr null, ptr %5, align 8
  store i32 1, ptr %11, align 4
  br label %87

26:                                               ; preds = %4
  call void @llvm.lifetime.start.p0(i64 8, ptr %12) #11
  %27 = load ptr, ptr %10, align 8, !tbaa !11
  %28 = getelementptr inbounds nuw %struct.lua_TValue, ptr %27, i32 0, i32 0
  %29 = load ptr, ptr %28, align 8, !tbaa !25
  store ptr %29, ptr %12, align 8, !tbaa !72
  %30 = load ptr, ptr %8, align 8, !tbaa !67
  %31 = icmp ne ptr %30, null
  br i1 %31, label %32, label %38

32:                                               ; preds = %26
  %33 = load ptr, ptr %12, align 8, !tbaa !72
  %34 = getelementptr inbounds nuw %struct.TString, ptr %33, i32 0, i32 6
  %35 = load i32, ptr %34, align 4, !tbaa !70
  %36 = zext i32 %35 to i64
  %37 = load ptr, ptr %8, align 8, !tbaa !67
  store i64 %36, ptr %37, align 8, !tbaa !69
  br label %38

38:                                               ; preds = %32, %26
  %39 = load ptr, ptr %9, align 8, !tbaa !65
  %40 = icmp ne ptr %39, null
  br i1 %40, label %41, label %83

41:                                               ; preds = %38
  %42 = load ptr, ptr %12, align 8, !tbaa !72
  %43 = getelementptr inbounds nuw %struct.TString, ptr %42, i32 0, i32 3
  %44 = load i16, ptr %43, align 4, !tbaa !73
  %45 = sext i16 %44 to i32
  %46 = icmp eq i32 %45, -32768
  br i1 %46, label %47, label %77

47:                                               ; preds = %41
  %48 = load ptr, ptr %6, align 8, !tbaa !4
  %49 = getelementptr inbounds nuw %struct.lua_State, ptr %48, i32 0, i32 9
  %50 = load ptr, ptr %49, align 8, !tbaa !33
  %51 = getelementptr inbounds nuw %struct.global_State, ptr %50, i32 0, i32 30
  %52 = getelementptr inbounds nuw %struct.lua_Callbacks, ptr %51, i32 0, i32 4
  %53 = load ptr, ptr %52, align 8, !tbaa !74
  %54 = icmp ne ptr %53, null
  br i1 %54, label %55, label %71

55:                                               ; preds = %47
  %56 = load ptr, ptr %6, align 8, !tbaa !4
  %57 = getelementptr inbounds nuw %struct.lua_State, ptr %56, i32 0, i32 9
  %58 = load ptr, ptr %57, align 8, !tbaa !33
  %59 = getelementptr inbounds nuw %struct.global_State, ptr %58, i32 0, i32 30
  %60 = getelementptr inbounds nuw %struct.lua_Callbacks, ptr %59, i32 0, i32 4
  %61 = load ptr, ptr %60, align 8, !tbaa !74
  %62 = load ptr, ptr %12, align 8, !tbaa !72
  %63 = getelementptr inbounds nuw %struct.TString, ptr %62, i32 0, i32 7
  %64 = getelementptr inbounds [1 x i8], ptr %63, i64 0, i64 0
  %65 = load ptr, ptr %12, align 8, !tbaa !72
  %66 = getelementptr inbounds nuw %struct.TString, ptr %65, i32 0, i32 6
  %67 = load i32, ptr %66, align 4, !tbaa !70
  %68 = zext i32 %67 to i64
  %69 = call noundef signext i16 %61(ptr noundef %64, i64 noundef %68)
  %70 = sext i16 %69 to i32
  br label %72

71:                                               ; preds = %47
  br label %72

72:                                               ; preds = %71, %55
  %73 = phi i32 [ %70, %55 ], [ -1, %71 ]
  %74 = trunc i32 %73 to i16
  %75 = load ptr, ptr %12, align 8, !tbaa !72
  %76 = getelementptr inbounds nuw %struct.TString, ptr %75, i32 0, i32 3
  store i16 %74, ptr %76, align 4, !tbaa !73
  br label %77

77:                                               ; preds = %72, %41
  %78 = load ptr, ptr %12, align 8, !tbaa !72
  %79 = getelementptr inbounds nuw %struct.TString, ptr %78, i32 0, i32 3
  %80 = load i16, ptr %79, align 4, !tbaa !73
  %81 = sext i16 %80 to i32
  %82 = load ptr, ptr %9, align 8, !tbaa !65
  store i32 %81, ptr %82, align 4, !tbaa !9
  br label %83

83:                                               ; preds = %77, %38
  %84 = load ptr, ptr %12, align 8, !tbaa !72
  %85 = getelementptr inbounds nuw %struct.TString, ptr %84, i32 0, i32 7
  %86 = getelementptr inbounds [1 x i8], ptr %85, i64 0, i64 0
  store ptr %86, ptr %5, align 8
  store i32 1, ptr %11, align 4
  call void @llvm.lifetime.end.p0(i64 8, ptr %12) #11
  br label %87

87:                                               ; preds = %83, %25
  call void @llvm.lifetime.end.p0(i64 8, ptr %10) #11
  %88 = load ptr, ptr %5, align 8
  ret ptr %88
}