; Function Attrs: mustprogress uwtable
define dso_local noundef ptr @_Z17lua_tolstringatomP9lua_StateiPmPi(ptr noundef readonly captures(none) %0, i32 noundef %1, ptr noundef writeonly %2, ptr noundef writeonly %3) local_unnamed_addr #3 {
  %5 = icmp sgt i32 %1, 0
  br i1 %5, label %6, label %14

6:                                                ; preds = %4
  %7 = getelementptr inbounds nuw i8, ptr %0, i64 16
  %8 = load ptr, ptr %7, align 8, !tbaa !4
  %9 = zext nneg i32 %1 to i64
  %10 = getelementptr %struct.lua_TValue, ptr %8, i64 %9
  %11 = getelementptr i8, ptr %10, i64 -16
  %12 = getelementptr inbounds nuw i8, ptr %0, i64 8
  %13 = load ptr, ptr %12, align 8, !tbaa !19
  %.not.i = icmp ult ptr %11, %13
  %.luaO_nilobject_.i = select i1 %.not.i, ptr %11, ptr @luaO_nilobject_
  br label %_ZL10index2addrP9lua_Statei.exit

14:                                               ; preds = %4
  %15 = icmp sgt i32 %1, -10000
  br i1 %15, label %16, label %21

16:                                               ; preds = %14
  %17 = getelementptr inbounds nuw i8, ptr %0, i64 8
  %18 = load ptr, ptr %17, align 8, !tbaa !19
  %19 = sext i32 %1 to i64
  %20 = getelementptr inbounds %struct.lua_TValue, ptr %18, i64 %19
  br label %_ZL10index2addrP9lua_Statei.exit

21:                                               ; preds = %14
  %22 = tail call fastcc noundef ptr @_ZL11pseudo2addrP9lua_Statei(ptr noundef %0, i32 noundef %1)
  br label %_ZL10index2addrP9lua_Statei.exit

_ZL10index2addrP9lua_Statei.exit:                 ; preds = %6, %16, %21
  %.1.i = phi ptr [ %.luaO_nilobject_.i, %6 ], [ %20, %16 ], [ %22, %21 ]
  %23 = getelementptr inbounds nuw i8, ptr %.1.i, i64 12
  %24 = load i32, ptr %23, align 4, !tbaa !47
  %25 = icmp eq i32 %24, 5
  br i1 %25, label %28, label %26

26:                                               ; preds = %_ZL10index2addrP9lua_Statei.exit
  %.not = icmp eq ptr %2, null
  br i1 %.not, label %57, label %27

27:                                               ; preds = %26
  store i64 0, ptr %2, align 8, !tbaa !60
  br label %57

28:                                               ; preds = %_ZL10index2addrP9lua_Statei.exit
  %29 = load ptr, ptr %.1.i, align 8, !tbaa !21
  %.not22 = icmp eq ptr %2, null
  br i1 %.not22, label %34, label %30

30:                                               ; preds = %28
  %31 = getelementptr inbounds nuw i8, ptr %29, i64 20
  %32 = load i32, ptr %31, align 4, !tbaa !61
  %33 = zext i32 %32 to i64
  store i64 %33, ptr %2, align 8, !tbaa !60
  br label %34

34:                                               ; preds = %30, %28
  %.not23 = icmp eq ptr %3, null
  br i1 %.not23, label %55, label %35

35:                                               ; preds = %34
  %36 = getelementptr inbounds nuw i8, ptr %29, i64 4
  %37 = load i16, ptr %36, align 4, !tbaa !63
  %38 = icmp eq i16 %37, -32768
  br i1 %38, label %39, label %52

39:                                               ; preds = %35
  %40 = getelementptr inbounds nuw i8, ptr %0, i64 24
  %41 = load ptr, ptr %40, align 8, !tbaa !30
  %42 = getelementptr inbounds nuw i8, ptr %41, i64 3320
  %43 = load ptr, ptr %42, align 8, !tbaa !64
  %.not24 = icmp eq ptr %43, null
  br i1 %.not24, label %50, label %44

44:                                               ; preds = %39
  %45 = getelementptr inbounds nuw i8, ptr %29, i64 24
  %46 = getelementptr inbounds nuw i8, ptr %29, i64 20
  %47 = load i32, ptr %46, align 4, !tbaa !61
  %48 = zext i32 %47 to i64
  %49 = tail call noundef signext i16 %43(ptr noundef nonnull %45, i64 noundef %48)
  br label %50

50:                                               ; preds = %39, %44
  %51 = phi i16 [ %49, %44 ], [ -1, %39 ]
  store i16 %51, ptr %36, align 4, !tbaa !63
  br label %52

52:                                               ; preds = %50, %35
  %53 = phi i16 [ %51, %50 ], [ %37, %35 ]
  %54 = sext i16 %53 to i32
  store i32 %54, ptr %3, align 4, !tbaa !22
  br label %55

55:                                               ; preds = %52, %34
  %56 = getelementptr inbounds nuw i8, ptr %29, i64 24
  br label %57

57:                                               ; preds = %26, %27, %55
  %.0 = phi ptr [ %56, %55 ], [ null, %27 ], [ null, %26 ]
  ret ptr %.0
}